; Function Attrs: nofree norecurse nosync nounwind memory(read, argmem: readwrite, inaccessiblemem: none) uwtable
define hidden i32 @evbuffer_read_setup_vecs_(ptr noundef readonly captures(none) %0, i64 noundef %1, ptr noundef writeonly captures(none) %2, i32 noundef %3, ptr noundef writeonly captures(none) %4, i32 noundef %5) local_unnamed_addr #5 {
  %7 = icmp slt i64 %1, 0
  br i1 %7, label %85, label %8

8:                                                ; preds = %6
  %9 = getelementptr inbounds nuw i8, ptr %0, i64 16
  %10 = load ptr, ptr %9, align 8
  %11 = load ptr, ptr %10, align 8
  %12 = getelementptr inbounds nuw i8, ptr %11, i64 32
  %13 = load i32, ptr %12, align 8
  %14 = and i32 %13, 8
  %.not = icmp eq i32 %14, 0
  br i1 %.not, label %15, label %.critedge

15:                                               ; preds = %8
  %16 = getelementptr inbounds nuw i8, ptr %11, i64 8
  %17 = load i64, ptr %16, align 8
  %18 = getelementptr inbounds nuw i8, ptr %11, i64 16
  %19 = load i64, ptr %18, align 8
  %20 = getelementptr inbounds nuw i8, ptr %11, i64 24
  %21 = load i64, ptr %20, align 8
  %22 = add i64 %21, %19
  %23 = icmp eq i64 %17, %22
  br i1 %23, label %.critedge, label %24

.critedge:                                        ; preds = %8, %15
  br label %24

24:                                               ; preds = %.critedge, %15
  %.043 = phi ptr [ %11, %.critedge ], [ %10, %15 ]
  %25 = icmp sgt i32 %3, 0
  %26 = icmp ne i64 %1, 0
  %27 = and i1 %25, %26
  br i1 %27, label %.lr.ph, label %._crit_edge

.lr.ph:                                           ; preds = %24
  %.04452 = load ptr, ptr %.043, align 8
  %.not49 = icmp eq i32 %5, 0
  %28 = zext nneg i32 %3 to i64
  br i1 %.not49, label %.lr.ph.split.us, label %.lr.ph.split

.lr.ph.split.us:                                  ; preds = %.lr.ph, %41
  %indvars.iv59 = phi i64 [ %indvars.iv.next60, %41 ], [ 0, %.lr.ph ]
  %.04455.us = phi ptr [ %.044.us, %41 ], [ %.04452, %.lr.ph ]
  %.04253.us = phi i64 [ %51, %41 ], [ 0, %.lr.ph ]
  %29 = getelementptr inbounds nuw i8, ptr %.04455.us, i64 32
  %30 = load i32, ptr %29, align 8
  %31 = and i32 %30, 8
  %.not48.us = icmp eq i32 %31, 0
  br i1 %.not48.us, label %32, label %.lr.ph.split.us._crit_edge

.lr.ph.split.us._crit_edge:                       ; preds = %.lr.ph.split.us
  %.phi.trans.insert64 = getelementptr inbounds nuw i8, ptr %.04455.us, i64 16
  %.pre65 = load i64, ptr %.phi.trans.insert64, align 8
  %.phi.trans.insert66 = getelementptr inbounds nuw i8, ptr %.04455.us, i64 24
  %.pre67 = load i64, ptr %.phi.trans.insert66, align 8
  br label %41

32:                                               ; preds = %.lr.ph.split.us
  %33 = getelementptr inbounds nuw i8, ptr %.04455.us, i64 8
  %34 = load i64, ptr %33, align 8
  %35 = getelementptr inbounds nuw i8, ptr %.04455.us, i64 16
  %36 = load i64, ptr %35, align 8
  %37 = getelementptr inbounds nuw i8, ptr %.04455.us, i64 24
  %38 = load i64, ptr %37, align 8
  %39 = add i64 %36, %38
  %40 = sub i64 %34, %39
  br label %41

41:                                               ; preds = %.lr.ph.split.us._crit_edge, %32
  %42 = phi i64 [ %38, %32 ], [ %.pre67, %.lr.ph.split.us._crit_edge ]
  %43 = phi i64 [ %36, %32 ], [ %.pre65, %.lr.ph.split.us._crit_edge ]
  %44 = phi i64 [ %40, %32 ], [ 0, %.lr.ph.split.us._crit_edge ]
  %45 = getelementptr inbounds nuw i8, ptr %.04455.us, i64 40
  %46 = load ptr, ptr %45, align 8
  %47 = getelementptr inbounds i8, ptr %46, i64 %43
  %48 = getelementptr inbounds nuw i8, ptr %47, i64 %42
  %49 = getelementptr inbounds nuw %struct.iovec, ptr %2, i64 %indvars.iv59
  store ptr %48, ptr %49, align 8
  %50 = getelementptr inbounds nuw i8, ptr %49, i64 8
  store i64 %44, ptr %50, align 8
  %51 = add i64 %44, %.04253.us
  %indvars.iv.next60 = add nuw nsw i64 %indvars.iv59, 1
  %.044.us = load ptr, ptr %.04455.us, align 8
  %52 = icmp samesign ult i64 %indvars.iv.next60, %28
  %53 = icmp ult i64 %51, %1
  %54 = select i1 %52, i1 %53, i1 false
  br i1 %54, label %.lr.ph.split.us, label %._crit_edge.loopexit, !llvm.loop !14

.lr.ph.split:                                     ; preds = %.lr.ph, %67
  %indvars.iv = phi i64 [ %indvars.iv.next, %67 ], [ 0, %.lr.ph ]
  %.04455 = phi ptr [ %.044, %67 ], [ %.04452, %.lr.ph ]
  %.04253 = phi i64 [ %79, %67 ], [ 0, %.lr.ph ]
  %55 = getelementptr inbounds nuw i8, ptr %.04455, i64 32
  %56 = load i32, ptr %55, align 8
  %57 = and i32 %56, 8
  %.not48 = icmp eq i32 %57, 0
  br i1 %.not48, label %58, label %.lr.ph.split._crit_edge

.lr.ph.split._crit_edge:                          ; preds = %.lr.ph.split
  %.phi.trans.insert = getelementptr inbounds nuw i8, ptr %.04455, i64 16
  %.pre = load i64, ptr %.phi.trans.insert, align 8
  %.phi.trans.insert62 = getelementptr inbounds nuw i8, ptr %.04455, i64 24
  %.pre63 = load i64, ptr %.phi.trans.insert62, align 8
  br label %67

58:                                               ; preds = %.lr.ph.split
  %59 = getelementptr inbounds nuw i8, ptr %.04455, i64 8
  %60 = load i64, ptr %59, align 8
  %61 = getelementptr inbounds nuw i8, ptr %.04455, i64 16
  %62 = load i64, ptr %61, align 8
  %63 = getelementptr inbounds nuw i8, ptr %.04455, i64 24
  %64 = load i64, ptr %63, align 8
  %65 = add i64 %62, %64
  %66 = sub i64 %60, %65
  br label %67

67:                                               ; preds = %.lr.ph.split._crit_edge, %58
  %68 = phi i64 [ %64, %58 ], [ %.pre63, %.lr.ph.split._crit_edge ]
  %69 = phi i64 [ %62, %58 ], [ %.pre, %.lr.ph.split._crit_edge ]
  %70 = phi i64 [ %66, %58 ], [ 0, %.lr.ph.split._crit_edge ]
  %71 = sub nsw i64 %1, %.04253
  %72 = tail call i64 @llvm.umin.i64(i64 %70, i64 %71)
  %73 = getelementptr inbounds nuw i8, ptr %.04455, i64 40
  %74 = load ptr, ptr %73, align 8
  %75 = getelementptr inbounds i8, ptr %74, i64 %69
  %76 = getelementptr inbounds nuw i8, ptr %75, i64 %68
  %77 = getelementptr inbounds nuw %struct.iovec, ptr %2, i64 %indvars.iv
  store ptr %76, ptr %77, align 8
  %78 = getelementptr inbounds nuw i8, ptr %77, i64 8
  store i64 %72, ptr %78, align 8
  %79 = add i64 %72, %.04253
  %indvars.iv.next = add nuw nsw i64 %indvars.iv, 1
  %.044 = load ptr, ptr %.04455, align 8
  %80 = icmp samesign ult i64 %indvars.iv.next, %28
  %81 = icmp ult i64 %79, %1
  %82 = select i1 %80, i1 %81, i1 false
  br i1 %82, label %.lr.ph.split, label %._crit_edge.loopexit56, !llvm.loop !14

._crit_edge.loopexit:                             ; preds = %41
  %83 = trunc nuw nsw i64 %indvars.iv.next60 to i32
  br label %._crit_edge

._crit_edge.loopexit56:                           ; preds = %67
  %84 = trunc nuw nsw i64 %indvars.iv.next to i32
  br label %._crit_edge

._crit_edge:                                      ; preds = %._crit_edge.loopexit56, %._crit_edge.loopexit, %24
  %.041.lcssa = phi i32 [ 0, %24 ], [ %83, %._crit_edge.loopexit ], [ %84, %._crit_edge.loopexit56 ]
  store ptr %.043, ptr %4, align 8
  br label %85

85:                                               ; preds = %6, %._crit_edge
  %.045 = phi i32 [ %.041.lcssa, %._crit_edge ], [ -1, %6 ]
  ret i32 %.045
}